target datalayout = "e-m:e-p270:32:32-p271:32:32-p272:64:64-i64:64-i128:128-f80:128-n8:16:32:64-S128"
target triple = "x86_64-pc-linux-gnu"

; Function Attrs: nounwind uwtable
define i32 @X509_check_email(ptr noundef %0, ptr noundef %1, i64 noundef %2, i32 noundef %3) #0 {
  %5 = alloca i32, align 4
  %6 = alloca ptr, align 8
  %7 = alloca ptr, align 8
  %8 = alloca i64, align 8
  %9 = alloca i32, align 4
  store ptr %0, ptr %6, align 8, !tbaa !38
  store ptr %1, ptr %7, align 8, !tbaa !3
  store i64 %2, ptr %8, align 8, !tbaa !10
  store i32 %3, ptr %9, align 4, !tbaa !15
  %10 = load ptr, ptr %7, align 8, !tbaa !3
  %11 = icmp eq ptr %10, null
  br i1 %11, label %12, label %13

12:                                               ; preds = %4
  store i32 -2, ptr %5, align 4
  br label %54

13:                                               ; preds = %4
  %14 = load i64, ptr %8, align 8, !tbaa !10
  %15 = icmp eq i64 %14, 0
  br i1 %15, label %16, label %19

16:                                               ; preds = %13
  %17 = load ptr, ptr %7, align 8, !tbaa !3
  %18 = call i64 @strlen(ptr noundef %17) #7
  store i64 %18, ptr %8, align 8, !tbaa !10
  br label %34

19:                                               ; preds = %13
  %20 = load ptr, ptr %7, align 8, !tbaa !3
  %21 = load i64, ptr %8, align 8, !tbaa !10
  %22 = icmp ugt i64 %21, 1
  br i1 %22, label %23, label %26

23:                                               ; preds = %19
  %24 = load i64, ptr %8, align 8, !tbaa !10
  %25 = sub i64 %24, 1
  br label %28

26:                                               ; preds = %19
  %27 = load i64, ptr %8, align 8, !tbaa !10
  br label %28

28:                                               ; preds = %26, %23
  %29 = phi i64 [ %25, %23 ], [ %27, %26 ]
  %30 = call ptr @memchr(ptr noundef %20, i32 noundef 0, i64 noundef %29) #7
  %31 = icmp ne ptr %30, null
  br i1 %31, label %32, label %33

32:                                               ; preds = %28
  store i32 -2, ptr %5, align 4
  br label %54

33:                                               ; preds = %28
  br label %34

34:                                               ; preds = %33, %16
  %35 = load i64, ptr %8, align 8, !tbaa !10
  %36 = icmp ugt i64 %35, 1
  br i1 %36, label %37, label %48

37:                                               ; preds = %34
  %38 = load ptr, ptr %7, align 8, !tbaa !3
  %39 = load i64, ptr %8, align 8, !tbaa !10
  %40 = sub i64 %39, 1
  %41 = getelementptr inbounds nuw i8, ptr %38, i64 %40
  %42 = load i8, ptr %41, align 1, !tbaa !27
  %43 = sext i8 %42 to i32
  %44 = icmp eq i32 %43, 0
  br i1 %44, label %45, label %48

45:                                               ; preds = %37
  %46 = load i64, ptr %8, align 8, !tbaa !10
  %47 = add i64 %46, -1
  store i64 %47, ptr %8, align 8, !tbaa !10
  br label %48

48:                                               ; preds = %45, %37, %34
  %49 = load ptr, ptr %6, align 8, !tbaa !38
  %50 = load ptr, ptr %7, align 8, !tbaa !3
  %51 = load i64, ptr %8, align 8, !tbaa !10
  %52 = load i32, ptr %9, align 4, !tbaa !15
  %53 = call i32 @do_x509_check(ptr noundef %49, ptr noundef %50, i64 noundef %51, i32 noundef %52, i32 noundef 1, ptr noundef null)
  store i32 %53, ptr %5, align 4
  br label %54

54:                                               ; preds = %48, %32, %12
  %55 = load i32, ptr %5, align 4
  ret i32 %55
}