; Function Attrs: nounwind uwtable
define i32 @X509_check_email(ptr noundef %0, ptr noundef %1, i64 noundef %2, i32 noundef %3) local_unnamed_addr #0 {
  %5 = icmp eq ptr %1, null
  br i1 %5, label %24, label %6

6:                                                ; preds = %4
  %7 = icmp eq i64 %2, 0
  br i1 %7, label %8, label %10

8:                                                ; preds = %6
  %9 = tail call i64 @strlen(ptr noundef nonnull dereferenceable(1) %1) #11
  br label %14

10:                                               ; preds = %6
  %.not = icmp eq i64 %2, 1
  %11 = add i64 %2, -1
  %12 = select i1 %.not, i64 1, i64 %11
  %13 = tail call ptr @memchr(ptr noundef nonnull %1, i32 noundef 0, i64 noundef %12) #11
  %.not18 = icmp eq ptr %13, null
  br i1 %.not18, label %14, label %24

14:                                               ; preds = %10, %8
  %.015 = phi i64 [ %9, %8 ], [ %2, %10 ]
  %15 = icmp ugt i64 %.015, 1
  br i1 %15, label %16, label %22

16:                                               ; preds = %14
  %17 = getelementptr i8, ptr %1, i64 %.015
  %18 = getelementptr i8, ptr %17, i64 -1
  %19 = load i8, ptr %18, align 1, !tbaa !13
  %20 = icmp eq i8 %19, 0
  %21 = sext i1 %20 to i64
  %spec.select = add i64 %.015, %21
  br label %22

22:                                               ; preds = %16, %14
  %.1 = phi i64 [ %.015, %14 ], [ %spec.select, %16 ]
  %23 = tail call fastcc i32 @do_x509_check(ptr noundef %0, ptr noundef %1, i64 noundef %.1, i32 noundef %3, i32 noundef 1, ptr noundef null)
  br label %24

24:                                               ; preds = %10, %4, %22
  %.0 = phi i32 [ %23, %22 ], [ -2, %4 ], [ -2, %10 ]
  ret i32 %.0
}